How to Get the Public Server Cert when Visiting a Web Site
----------------------------------------------------------

Suppose you want to get the server cert used by https://www.springio.com/


Procedure
---------
 1. Download & Install openssl 1.0.1p
    a. Download openssl
       1) Go to http://www.openssl.org/related/binaries.html
       2) Select "Win64 OpenSSL v1.0.1p" (next to Works with MSVC++, Builder 3/4/5, and MinGW. Comes in form of self-install executables. )
          NOTE:  It should take you here:  http://slproweb.com/products/Win32OpenSSL.html
       3) Select Win64 OpenSSL v1.0.1p
          NOTE:  It should take you here:  http://slproweb.com/download/Win64OpenSSL-1_0_1p.exe         
       4) Save Win64OpenSSL-1_0_1p.exe to your c:\vault
 
    b. Install openssl 1.0.1p  (64-bit Windows version)
       1) Run c:\vault\Win64OpenSSL-1_0_1p.exe
          a) In the "Welcome to the openSSL (64-bit) setup wizard" screen, press Next
          b) In the License Agreement screen, select "I accept" and press "Next"
          c) In the "Select destination location" screen
             Set the destination to c:\tools\openssl-1.0.1p
             Press Next
          d) In the "Select Start Menu Folder" screen, use the defaults and press Next
          e) In the "Select Additional Tasks", choose "The Openssl binaries /bin directory" and press Next
          f) In the "Ready to Install" screen, press Install
    
    c. Verify openssl 1.0.1p is in your path
       CMD> openssl version
            
       You should see this:
            OpenSSL 1.0.1p 9 Jul 2015
        
       NOTE:  If you do *NOT* see this version or you get an an error, 
              then add openssl's c:\tools\openssl-1.0.1p\bin\ directory to your path             
              a) Open the Environment Variables in Windows by pressing <Start><Run>environment
              b) Under "User variables for..." [on the top of this popup], 
                 Click "New..."  [if PATH already exists, then double-click on PATH and add a semicolon and append this to the end of the PATH]
                    Variable name:  PATH
                    Variable value: c:\tools\openssl-1.0.1p\bin
                    
              c) Close your existing DOS windows
              d) Open a new DOS window
                 CMD> openssl version
                
                 You should see this:
                      OpenSSL 1.0.1p 9 Jul 2015        
                 
            
 
 2. Run the openssl c_client command to get the certs used by https://spring.io/
    CMD> openssl s_client -showcerts -connect spring.io:443
    
    You should see this:
    
        Loading 'screen' into random state - done
        CONNECTED(00000184)
        depth=1 C = US, O = DigiCert Inc, CN = DigiCert SHA2 Secure Server CA
        verify error:num=20:unable to get local issuer certificate
        verify return:0
        ---
        Certificate chain
         0 s:/C=US/ST=California/L=Palo Alto/O=Pivotal Software, Inc./CN=*.spring.io
           i:/C=US/O=DigiCert Inc/CN=DigiCert SHA2 Secure Server CA
        -----BEGIN CERTIFICATE-----
        MIIFGTCCBAGgAwIBAgIQB/kSfzKp+2NYiRZa7LQpXjANBgkqhkiG9w0BAQsFADBN
        MQswCQYDVQQGEwJVUzEVMBMGA1UEChMMRGlnaUNlcnQgSW5jMScwJQYDVQQDEx5E
        aWdpQ2VydCBTSEEyIFNlY3VyZSBTZXJ2ZXIgQ0EwHhcNMTUwMjAyMDAwMDAwWhcN
        MTYwOTAyMTIwMDAwWjBtMQswCQYDVQQGEwJVUzETMBEGA1UECBMKQ2FsaWZvcm5p
        YTESMBAGA1UEBxMJUGFsbyBBbHRvMR8wHQYDVQQKExZQaXZvdGFsIFNvZnR3YXJl
        LCBJbmMuMRQwEgYDVQQDDAsqLnNwcmluZy5pbzCCASIwDQYJKoZIhvcNAQEBBQAD
        ggEPADCCAQoCggEBAKjRojNdXE8Vx+ypby6OMkgf7uiEzKyXzdYG50FJhmxLejp5
        1VLkN8yp8eZGXwKNLUR1FAwSm/SzsCH9EiGXyCSfsbA1j081liz5rjbAdKtfhV9Z
        mv0LDtES+AK+PFHh0xuSVdmsm5sL/GDy65zvvMZqizg4Uy5ed9SNKUqCof6dcNNo
        bOCtXNj6Nthb+MqZDG74whE0rETnblezP8Cx/UtAg9oBveBIqDDt6/3bwSOfJNTR
        Q6G2P3mHDlmnW4D1VeOdTvO04Go2xQ17u/3zCSo/pJP+JKbvZjps3pUG0NoWLjE8
        bGIyKSAs5mL144dFnhh6jkM0dXmModcUOQsegjMCAwEAAaOCAdMwggHPMB8GA1Ud
        IwQYMBaAFA+AYRyCMWHVLyjnjUY4tCzhxtniMB0GA1UdDgQWBBQAUZnbmwPTSKM5
        SzNRYSj6FqKxcTAhBgNVHREEGjAYggsqLnNwcmluZy5pb4IJc3ByaW5nLmlvMA4G
        A1UdDwEB/wQEAwIFoDAdBgNVHSUEFjAUBggrBgEFBQcDAQYIKwYBBQUHAwIwawYD
        VR0fBGQwYjAvoC2gK4YpaHR0cDovL2NybDMuZGlnaWNlcnQuY29tL3NzY2Etc2hh
        Mi1nMy5jcmwwL6AtoCuGKWh0dHA6Ly9jcmw0LmRpZ2ljZXJ0LmNvbS9zc2NhLXNo
        YTItZzMuY3JsMEIGA1UdIAQ7MDkwNwYJYIZIAYb9bAEBMCowKAYIKwYBBQUHAgEW
        HGh0dHBzOi8vd3d3LmRpZ2ljZXJ0LmNvbS9DUFMwfAYIKwYBBQUHAQEEcDBuMCQG
        CCsGAQUFBzABhhhodHRwOi8vb2NzcC5kaWdpY2VydC5jb20wRgYIKwYBBQUHMAKG
        Omh0dHA6Ly9jYWNlcnRzLmRpZ2ljZXJ0LmNvbS9EaWdpQ2VydFNIQTJTZWN1cmVT
        ZXJ2ZXJDQS5jcnQwDAYDVR0TAQH/BAIwADANBgkqhkiG9w0BAQsFAAOCAQEAd7tf
        30V5dN1PDts1aCNNDpPjjuuljID8sje1EW/MgwJRjJ3uasfAM7w/7JrWx81PpHl7
        kozpxY1pUzmmmp/F1D8PDC0BSnbmJ4mX9/YjUUs+uO5Xjqxn1mwwQUZ4ivJ5jwBi
        b5DrIpQNRodl3mQfnejxMhN2dZgEU6Xvui/fJAkJyXDISvsi9DXOkh/Ie2f4zSLb
        QSxzEp4u2zNRCRtDg6VNnOqMQ78UPKjxmdnmN5vYsU3VBLbss4+hmy3Y4lz2PJRr
        +3isOYHwDUnVtxzda6csSKli1HuquWvhYEllfFVJxNTxG8ZzEv+IgLSmbWytbyoV
        GwaSmWaAUcInjws5vA==
        -----END CERTIFICATE-----
         1 s:/C=US/O=DigiCert Inc/CN=DigiCert SHA2 Secure Server CA
           i:/C=US/O=DigiCert Inc/OU=www.digicert.com/CN=DigiCert Global Root CA
        -----BEGIN CERTIFICATE-----
        MIIElDCCA3ygAwIBAgIQAf2j627KdciIQ4tyS8+8kTANBgkqhkiG9w0BAQsFADBh
        MQswCQYDVQQGEwJVUzEVMBMGA1UEChMMRGlnaUNlcnQgSW5jMRkwFwYDVQQLExB3
        d3cuZGlnaWNlcnQuY29tMSAwHgYDVQQDExdEaWdpQ2VydCBHbG9iYWwgUm9vdCBD
        QTAeFw0xMzAzMDgxMjAwMDBaFw0yMzAzMDgxMjAwMDBaME0xCzAJBgNVBAYTAlVT
        MRUwEwYDVQQKEwxEaWdpQ2VydCBJbmMxJzAlBgNVBAMTHkRpZ2lDZXJ0IFNIQTIg
        U2VjdXJlIFNlcnZlciBDQTCCASIwDQYJKoZIhvcNAQEBBQADggEPADCCAQoCggEB
        ANyuWJBNwcQwFZA1W248ghX1LFy949v/cUP6ZCWA1O4Yok3wZtAKc24RmDYXZK83
        nf36QYSvx6+M/hpzTc8zl5CilodTgyu5pnVILR1WN3vaMTIa16yrBvSqXUu3R0bd
        KpPDkC55gIDvEwRqFDu1m5K+wgdlTvza/P96rtxcflUxDOg5B6TXvi/TC2rSsd9f
        /ld0Uzs1gN2ujkSYs58O09rg1/RrKatEp0tYhG2SS4HD2nOLEpdIkARFdRrdNzGX
        kujNVA075ME/OV4uuPNcfhCOhkEAjUVmR7ChZc6gqikJTvOX6+guqw9ypzAO+sf0
        /RR3w6RbKFfCs/mC/bdFWJsCAwEAAaOCAVowggFWMBIGA1UdEwEB/wQIMAYBAf8C
        AQAwDgYDVR0PAQH/BAQDAgGGMDQGCCsGAQUFBwEBBCgwJjAkBggrBgEFBQcwAYYY
        aHR0cDovL29jc3AuZGlnaWNlcnQuY29tMHsGA1UdHwR0MHIwN6A1oDOGMWh0dHA6
        Ly9jcmwzLmRpZ2ljZXJ0LmNvbS9EaWdpQ2VydEdsb2JhbFJvb3RDQS5jcmwwN6A1
        oDOGMWh0dHA6Ly9jcmw0LmRpZ2ljZXJ0LmNvbS9EaWdpQ2VydEdsb2JhbFJvb3RD
        QS5jcmwwPQYDVR0gBDYwNDAyBgRVHSAAMCowKAYIKwYBBQUHAgEWHGh0dHBzOi8v
        d3d3LmRpZ2ljZXJ0LmNvbS9DUFMwHQYDVR0OBBYEFA+AYRyCMWHVLyjnjUY4tCzh
        xtniMB8GA1UdIwQYMBaAFAPeUDVW0Uy7ZvCj4hsbw5eyPdFVMA0GCSqGSIb3DQEB
        CwUAA4IBAQAjPt9L0jFCpbZ+QlwaRMxp0Wi0XUvgBCFsS+JtzLHgl4+mUwnNqipl
        5TlPHoOlblyYoiQm5vuh7ZPHLgLGTUq/sELfeNqzqPlt/yGFUzZgTHbO7Djc1lGA
        8MXW5dRNJ2Srm8c+cftIl7gzbckTB+6WohsYFfZcTEDts8Ls/3HB40f/1LkAtDdC
        2iDJ6m6K7hQGrn2iWZiIqBtvLfTyyRRfJs8sjX7tN8Cp1Tm5gr8ZDOo0rwAhaPit
        c+LJMto4JQtV05od8GiG7S5BNO98pVAdvzr508EIDObtHopYJeS4d60tbvVS3bR0
        j6tJLp07kzQoH3jOlOrHvdPJbRzeXDLz
        -----END CERTIFICATE-----
        ---
        Server certificate
        subject=/C=US/ST=California/L=Palo Alto/O=Pivotal Software, Inc./CN=*.spring.io
        issuer=/C=US/O=DigiCert Inc/CN=DigiCert SHA2 Secure Server CA
        ---
        No client certificate CA names sent
        ---
        SSL handshake has read 3158 bytes and written 423 bytes
        ---
        New, TLSv1/SSLv3, Cipher is ECDHE-RSA-AES128-GCM-SHA256
        Server public key is 2048 bit
        Secure Renegotiation IS supported
        Compression: NONE
        Expansion: NONE
        SSL-Session:
            Protocol  : TLSv1.2
            Cipher    : ECDHE-RSA-AES128-GCM-SHA256
            Session-ID: 4CEBBAB082108E3221217A31DBEA57F9507A77C5E130F7901AB7382CF015E410
            Session-ID-ctx:
            Master-Key: CAA81C2BF936C9570CE331F6F902B3A655F0A5A5763C5551898D7AB792448685DC4CEEF13001DFC9A2160584B686C1D3
            Key-Arg   : None
            PSK identity: None
            PSK identity hint: None
            SRP username: None
            TLS session ticket lifetime hint: 64800 (seconds)
            TLS session ticket:
            0000 - ed 83 73 a7 97 66 d2 11-09 5e a6 03 29 7f 0d 33   ..s..f...^..)..3
            0010 - bf 57 41 c4 95 40 ca ef-11 4e 98 64 df 87 51 45   .WA..@...N.d..QE
            0020 - 4a fe ef d5 08 10 c7 b5-55 c4 f8 b9 7f 35 e3 49   J.......U....5.I
            0030 - af 21 af a4 f5 6e 69 df-ab 46 b8 59 11 57 75 fc   .!...ni..F.Y.Wu.
            0040 - 88 4f dd df 57 49 06 bc-83 6f da ab 59 60 31 5e   .O..WI...o..Y`1^
            0050 - c6 0a 44 d2 cd 03 8c fb-32 a6 fc 09 fd b2 d9 21   ..D.....2......!
            0060 - c2 73 ec f2 07 ea 01 e7-68 95 17 36 d9 2d 38 b6   .s......h..6.-8.
            0070 - ae 41 62 81 66 c4 d8 bb-63 6b eb fa 3c 0e 23 82   .Ab.f...ck..<.#.
            0080 - 05 14 88 47 c6 6c 76 fa-86 66 28 62 80 33 b5 f2   ...G.lv..f(b.3..
            0090 - 36 0c 8f 40 d4 0e 34 0d-ec c0 7a 3e a2 09 7f d6   6..@..4...z>....
            00a0 - 19 b1 02 83 fb 0f 39 15-ec 83 d8 aa 7c 26 4e b3   ......9.....|&N.
        
            Start Time: 1448936665
            Timeout   : 300 (sec)
            Verify return code: 20 (unable to get local issuer certificate)
        ---
            
 3. View details about each cert
    a. Copy the text between -----BEGIN CERTIFICATE----- and -----END CERTIFICATE-----
       to a file called c:\temp\cert1.pem
       
       WARNING:  You cannot have any leading spaces on the lines
    
        -----BEGIN CERTIFICATE-----
        MIIFGTCCBAGgAwIBAgIQB/kSfzKp+2NYiRZa7LQpXjANBgkqhkiG9w0BAQsFADBN
        MQswCQYDVQQGEwJVUzEVMBMGA1UEChMMRGlnaUNlcnQgSW5jMScwJQYDVQQDEx5E
        aWdpQ2VydCBTSEEyIFNlY3VyZSBTZXJ2ZXIgQ0EwHhcNMTUwMjAyMDAwMDAwWhcN
        MTYwOTAyMTIwMDAwWjBtMQswCQYDVQQGEwJVUzETMBEGA1UECBMKQ2FsaWZvcm5p
        YTESMBAGA1UEBxMJUGFsbyBBbHRvMR8wHQYDVQQKExZQaXZvdGFsIFNvZnR3YXJl
        LCBJbmMuMRQwEgYDVQQDDAsqLnNwcmluZy5pbzCCASIwDQYJKoZIhvcNAQEBBQAD
        ggEPADCCAQoCggEBAKjRojNdXE8Vx+ypby6OMkgf7uiEzKyXzdYG50FJhmxLejp5
        1VLkN8yp8eZGXwKNLUR1FAwSm/SzsCH9EiGXyCSfsbA1j081liz5rjbAdKtfhV9Z
        mv0LDtES+AK+PFHh0xuSVdmsm5sL/GDy65zvvMZqizg4Uy5ed9SNKUqCof6dcNNo
        bOCtXNj6Nthb+MqZDG74whE0rETnblezP8Cx/UtAg9oBveBIqDDt6/3bwSOfJNTR
        Q6G2P3mHDlmnW4D1VeOdTvO04Go2xQ17u/3zCSo/pJP+JKbvZjps3pUG0NoWLjE8
        bGIyKSAs5mL144dFnhh6jkM0dXmModcUOQsegjMCAwEAAaOCAdMwggHPMB8GA1Ud
        IwQYMBaAFA+AYRyCMWHVLyjnjUY4tCzhxtniMB0GA1UdDgQWBBQAUZnbmwPTSKM5
        SzNRYSj6FqKxcTAhBgNVHREEGjAYggsqLnNwcmluZy5pb4IJc3ByaW5nLmlvMA4G
        A1UdDwEB/wQEAwIFoDAdBgNVHSUEFjAUBggrBgEFBQcDAQYIKwYBBQUHAwIwawYD
        VR0fBGQwYjAvoC2gK4YpaHR0cDovL2NybDMuZGlnaWNlcnQuY29tL3NzY2Etc2hh
        Mi1nMy5jcmwwL6AtoCuGKWh0dHA6Ly9jcmw0LmRpZ2ljZXJ0LmNvbS9zc2NhLXNo
        YTItZzMuY3JsMEIGA1UdIAQ7MDkwNwYJYIZIAYb9bAEBMCowKAYIKwYBBQUHAgEW
        HGh0dHBzOi8vd3d3LmRpZ2ljZXJ0LmNvbS9DUFMwfAYIKwYBBQUHAQEEcDBuMCQG
        CCsGAQUFBzABhhhodHRwOi8vb2NzcC5kaWdpY2VydC5jb20wRgYIKwYBBQUHMAKG
        Omh0dHA6Ly9jYWNlcnRzLmRpZ2ljZXJ0LmNvbS9EaWdpQ2VydFNIQTJTZWN1cmVT
        ZXJ2ZXJDQS5jcnQwDAYDVR0TAQH/BAIwADANBgkqhkiG9w0BAQsFAAOCAQEAd7tf
        30V5dN1PDts1aCNNDpPjjuuljID8sje1EW/MgwJRjJ3uasfAM7w/7JrWx81PpHl7
        kozpxY1pUzmmmp/F1D8PDC0BSnbmJ4mX9/YjUUs+uO5Xjqxn1mwwQUZ4ivJ5jwBi
        b5DrIpQNRodl3mQfnejxMhN2dZgEU6Xvui/fJAkJyXDISvsi9DXOkh/Ie2f4zSLb
        QSxzEp4u2zNRCRtDg6VNnOqMQ78UPKjxmdnmN5vYsU3VBLbss4+hmy3Y4lz2PJRr
        +3isOYHwDUnVtxzda6csSKli1HuquWvhYEllfFVJxNTxG8ZzEv+IgLSmbWytbyoV
        GwaSmWaAUcInjws5vA==
        -----END CERTIFICATE-----
    
    b. Use the openssl command to view the contents of the cert
       CMD> openssl x509 -in c:\temp\cert1.pem -noout -text 
       
       You should see this:
       
       Certificate:
            Data:
                Version: 3 (0x2)
                Serial Number:
                    07:f9:12:7f:32:a9:fb:63:58:89:16:5a:ec:b4:29:5e
            Signature Algorithm: sha256WithRSAEncryption
                Issuer: C=US, O=DigiCert Inc, CN=DigiCert SHA2 Secure Server CA
                Validity
                    Not Before: Feb  2 00:00:00 2015 GMT
                    Not After : Sep  2 12:00:00 2016 GMT
                Subject: C=US, ST=California, L=Palo Alto, O=Pivotal Software, Inc., CN=*.spring.io
                Subject Public Key Info:
                    Public Key Algorithm: rsaEncryption
                        Public-Key: (2048 bit)
                        Modulus:
                            00:a8:d1:a2:33:5d:5c:4f:15:c7:ec:a9:6f:2e:8e:
                            32:48:1f:ee:e8:84:cc:ac:97:cd:d6:06:e7:41:49:
                            86:6c:4b:7a:3a:79:d5:52:e4:37:cc:a9:f1:e6:46:
                            5f:02:8d:2d:44:75:14:0c:12:9b:f4:b3:b0:21:fd:
                            12:21:97:c8:24:9f:b1:b0:35:8f:4f:35:96:2c:f9:
                            ae:36:c0:74:ab:5f:85:5f:59:9a:fd:0b:0e:d1:12:
                            f8:02:be:3c:51:e1:d3:1b:92:55:d9:ac:9b:9b:0b:
                            fc:60:f2:eb:9c:ef:bc:c6:6a:8b:38:38:53:2e:5e:
                            77:d4:8d:29:4a:82:a1:fe:9d:70:d3:68:6c:e0:ad:
                            5c:d8:fa:36:d8:5b:f8:ca:99:0c:6e:f8:c2:11:34:
                            ac:44:e7:6e:57:b3:3f:c0:b1:fd:4b:40:83:da:01:
                            bd:e0:48:a8:30:ed:eb:fd:db:c1:23:9f:24:d4:d1:
                            43:a1:b6:3f:79:87:0e:59:a7:5b:80:f5:55:e3:9d:
                            4e:f3:b4:e0:6a:36:c5:0d:7b:bb:fd:f3:09:2a:3f:
                            a4:93:fe:24:a6:ef:66:3a:6c:de:95:06:d0:da:16:
                            2e:31:3c:6c:62:32:29:20:2c:e6:62:f5:e3:87:45:
                            9e:18:7a:8e:43:34:75:79:8c:a1:d7:14:39:0b:1e:
                            82:33
                        Exponent: 65537 (0x10001)
                X509v3 extensions:
                    X509v3 Authority Key Identifier: 
                        keyid:0F:80:61:1C:82:31:61:D5:2F:28:E7:8D:46:38:B4:2C:E1:C6:D9:E2
        
                    X509v3 Subject Key Identifier: 
                        00:51:99:DB:9B:03:D3:48:A3:39:4B:33:51:61:28:FA:16:A2:B1:71
                    X509v3 Subject Alternative Name: 
                        DNS:*.spring.io, DNS:spring.io
                    X509v3 Key Usage: critical
                        Digital Signature, Key Encipherment
                    X509v3 Extended Key Usage: 
                        TLS Web Server Authentication, TLS Web Client Authentication
                    X509v3 CRL Distribution Points: 
        
                        Full Name:
                          URI:http://crl3.digicert.com/ssca-sha2-g3.crl
        
                        Full Name:
                          URI:http://crl4.digicert.com/ssca-sha2-g3.crl
        
                    X509v3 Certificate Policies: 
                        Policy: 2.16.840.1.114412.1.1
                          CPS: https://www.digicert.com/CPS
        
                    Authority Information Access: 
                        OCSP - URI:http://ocsp.digicert.com
                        CA Issuers - URI:http://cacerts.digicert.com/DigiCertSHA2SecureServerCA.crt
        
                    X509v3 Basic Constraints: critical
                        CA:FALSE
            Signature Algorithm: sha256WithRSAEncryption
                 77:bb:5f:df:45:79:74:dd:4f:0e:db:35:68:23:4d:0e:93:e3:
                 8e:eb:a5:8c:80:fc:b2:37:b5:11:6f:cc:83:02:51:8c:9d:ee:
                 6a:c7:c0:33:bc:3f:ec:9a:d6:c7:cd:4f:a4:79:7b:92:8c:e9:
                 c5:8d:69:53:39:a6:9a:9f:c5:d4:3f:0f:0c:2d:01:4a:76:e6:
                 27:89:97:f7:f6:23:51:4b:3e:b8:ee:57:8e:ac:67:d6:6c:30:
                 41:46:78:8a:f2:79:8f:00:62:6f:90:eb:22:94:0d:46:87:65:
                 de:64:1f:9d:e8:f1:32:13:76:75:98:04:53:a5:ef:ba:2f:df:
                 24:09:09:c9:70:c8:4a:fb:22:f4:35:ce:92:1f:c8:7b:67:f8:
                 cd:22:db:41:2c:73:12:9e:2e:db:33:51:09:1b:43:83:a5:4d:
                 9c:ea:8c:43:bf:14:3c:a8:f1:99:d9:e6:37:9b:d8:b1:4d:d5:
                 04:b6:ec:b3:8f:a1:9b:2d:d8:e2:5c:f6:3c:94:6b:fb:78:ac:
                 39:81:f0:0d:49:d5:b7:1c:dd:6b:a7:2c:48:a9:62:d4:7b:aa:
                 b9:6b:e1:60:49:65:7c:55:49:c4:d4:f1:1b:c6:73:12:ff:88:
                 80:b4:a6:6d:6c:ad:6f:2a:15:1b:06:92:99:66:80:51:c2:27:
                 8f:0b:39:bc
       